ccopy_reg
_reconstructor
p0
(cuser_inputs
UserInput
p1
c__builtin__
object
p2
Ntp3
Rp4
(dp5
S'COMMENT'
p6
S'End of Term Marks for Term 3 2013 / Student Comment'
p7
sS'HTML_OUTPUT_FOLDER'
p8
VC:\u005cUsers\u005cLyla\u005cDocuments\u005cGGAST\u005cTechnician\u005cgrade_generator\u005cPython_Report_Generator\u005cexcel_sheets_from_schooltool\u005cGENERATED\u005c
p9
sS'term'
p10
Vterm-3
p11
sS'group'
p12
VStudents
p13
sS'termTitle'
p14
VTerm 3
p15
sS'MTM'
p16
S'Midterm Marks Term for Term 3 2013 / Midterm Mark'
p17
sS'TEMPLATES_FOLDER'
p18
VC:\u005cUsers\u005cLyla\u005cDocuments\u005cGGAST\u005cTechnician\u005cgrade_generator\u005cPython_Report_Generator\u005ctemplates
p19
sS'COMBO'
p20
S'Combination'
p21
sS'includeComments'
p22
I00
sS'FINAL'
p23
S'End of Term Marks for Term 3 2013 / Term Exam Mark'
p24
sS'ADVISOR'
p25
S'Advisor'
p26
sS'TEACHERS'
p27
S'Teachers'
p28
sS'REPORT_TYPE'
p29
I2
sS'year'
p30
S'2013'
p31
sS'excel_file_location'
p32
VC:\u005cUsers\u005cLyla\u005cDocuments\u005cGGAST\u005cTechnician\u005cgrade_generator\u005cPython_Report_Generator\u005cexcel_sheets_from_schooltool\u005cexport.xls
p33
sS'aveType'
p34
I0
sS'ETM'
p35
S'End of Term Marks for Term 3 2013 / End of Term Mark'
p36
sb.